
hello.ko:     file format elf32-littlearm


Disassembly of section .text:

00000000 <cleanup_module>:
   0:	e59f0008 	ldr	r0, [pc, #8]	; 10 <cleanup_module+0x10>
   4:	e3a02013 	mov	r2, #19
   8:	e59f1004 	ldr	r1, [pc, #4]	; 14 <cleanup_module+0x14>
   c:	eafffffe 	b	0 <printk>
  10:	00000012 	andeq	r0, r0, r2, lsl r0
  14:	0000000b 	andeq	r0, r0, fp

Disassembly of section .init.text:

00000000 <init_module>:
   0:	e92d4010 	push	{r4, lr}
   4:	e3a04000 	mov	r4, #0
   8:	e59f1014 	ldr	r1, [pc, #20]	; 24 <init_module+0x24>
   c:	e3a0200d 	mov	r2, #13
  10:	e5d43000 	ldrb	r3, [r4]
  14:	e59f000c 	ldr	r0, [pc, #12]	; 28 <init_module+0x28>
  18:	ebfffffe 	bl	0 <printk>
  1c:	e1a00004 	mov	r0, r4
  20:	e8bd8010 	pop	{r4, pc}
	...

Disassembly of section .modinfo:

00000000 <__UNIQUE_ID_license0>:
   0:	6563696c 	strbvs	r6, [r3, #-2412]!	; 0x96c
   4:	3d65736e 	stclcc	3, cr7, [r5, #-440]!	; 0xfffffe48
   8:	004c5047 	subeq	r5, ip, r7, asr #32

0000000c <__module_depends>:
   c:	65706564 	ldrbvs	r6, [r0, #-1380]!	; 0x564
  10:	3d73646e 	cfldrdcc	mvd6, [r3, #-440]!	; 0xfffffe48
	...

00000015 <__UNIQUE_ID_vermagic0>:
  15:	6d726576 	cfldr64vs	mvdx6, [r2, #-472]!	; 0xfffffe28
  19:	63696761 	cmnvs	r9, #25427968	; 0x1840000
  1d:	312e333d 	teqcc	lr, sp, lsr r3
  21:	20302e30 	eorscs	r2, r0, r0, lsr lr
  25:	20504d53 	subscs	r4, r0, r3, asr sp
  29:	65657270 	strbvs	r7, [r5, #-624]!	; 0x270
  2d:	2074706d 	rsbscs	r7, r4, sp, rrx
  31:	5f646f6d 	svcpl	0x00646f6d
  35:	6f6c6e75 	svcvs	0x006c6e75
  39:	41206461 	teqmi	r0, r1, ror #8
  3d:	37764d52 			; <UNDEFINED> instruction: 0x37764d52
  41:	76327020 	ldrtvc	r7, [r2], -r0, lsr #32
  45:	Address 0x0000000000000045 is out of bounds.

